target datalayout = "e-m:e-p270:32:32-p271:32:32-p272:64:64-i64:64-i128:128-f80:128-n8:16:32:64-S128"
target triple = "x86_64-pc-linux-gnu"

%struct.grpc_slice = type { ptr, %"union.grpc_slice::grpc_slice_data" }
%"union.grpc_slice::grpc_slice_data" = type { %"struct.grpc_slice::grpc_slice_data::grpc_slice_refcounted", [8 x i8] }
%"struct.grpc_slice::grpc_slice_data::grpc_slice_refcounted" = type { i64, ptr }
%"class.grpc_core::SliceBuffer" = type { %struct.grpc_slice_buffer }
%struct.grpc_slice_buffer = type { ptr, ptr, i64, i64, i64, [6 x %struct.grpc_slice] }
%"class.grpc_core::DebugLocation" = type { i8 }
%"class.grpc_core::slice_detail::BaseSlice" = type { %struct.grpc_slice }
%"class.grpc_core::Slice" = type { %"class.grpc_core::slice_detail::BaseSlice" }
%struct.grpc_slice_refcount = type { %"struct.std::atomic", ptr }
%"struct.std::atomic" = type { %"struct.std::__atomic_base" }
%"struct.std::__atomic_base" = type { i64 }

; Function Attrs: alwaysinline mustprogress nounwind uwtable
define linkonce_odr noundef i64 @_ZNSt13__atomic_baseImE9fetch_addEmSt12memory_order(ptr noundef nonnull align 8 dereferenceable(8) %0, i64 noundef %1, i32 noundef %2) #15 comdat align 2 {
  %4 = alloca ptr, align 8
  %5 = alloca i64, align 8
  %6 = alloca i32, align 4
  %7 = alloca i64, align 8
  %8 = alloca i64, align 8
  store ptr %0, ptr %4, align 8, !tbaa !75
  store i64 %1, ptr %5, align 8, !tbaa !16
  store i32 %2, ptr %6, align 4, !tbaa !77
  %9 = load ptr, ptr %4, align 8
  %10 = getelementptr inbounds nuw %"struct.std::__atomic_base", ptr %9, i32 0, i32 0
  %11 = load i32, ptr %6, align 4, !tbaa !77
  %12 = load i64, ptr %5, align 8, !tbaa !16
  store i64 %12, ptr %7, align 8, !tbaa !16
  switch i32 %11, label %13 [
    i32 1, label %16
    i32 2, label %16
    i32 3, label %19
    i32 4, label %22
    i32 5, label %25
  ]

13:                                               ; preds = %3
  %14 = load i64, ptr %7, align 8
  %15 = atomicrmw add ptr %10, i64 %14 monotonic, align 8
  store i64 %15, ptr %8, align 8
  br label %28

16:                                               ; preds = %3, %3
  %17 = load i64, ptr %7, align 8
  %18 = atomicrmw add ptr %10, i64 %17 acquire, align 8
  store i64 %18, ptr %8, align 8
  br label %28

19:                                               ; preds = %3
  %20 = load i64, ptr %7, align 8
  %21 = atomicrmw add ptr %10, i64 %20 release, align 8
  store i64 %21, ptr %8, align 8
  br label %28

22:                                               ; preds = %3
  %23 = load i64, ptr %7, align 8
  %24 = atomicrmw add ptr %10, i64 %23 acq_rel, align 8
  store i64 %24, ptr %8, align 8
  br label %28

25:                                               ; preds = %3
  %26 = load i64, ptr %7, align 8
  %27 = atomicrmw add ptr %10, i64 %26 seq_cst, align 8
  store i64 %27, ptr %8, align 8
  br label %28

28:                                               ; preds = %25, %22, %19, %16, %13
  %29 = load i64, ptr %8, align 8, !tbaa !16
  ret i64 %29
}

; Function Attrs: mustprogress nounwind uwtable
define internal void @_ZN9grpc_core12slice_detailL10EmptySliceEv(ptr dead_on_unwind noalias writable sret(%struct.grpc_slice) align 8 %0) #6 {
  call void @llvm.memset.p0.i64(ptr align 8 %0, i8 0, i64 32, i1 false)
  ret void
}

; Function Attrs: mustprogress nounwind uwtable
define linkonce_odr void @_ZN9grpc_core12slice_detail9BaseSliceC2ERK10grpc_slice(ptr noundef nonnull align 8 dereferenceable(32) %0, ptr noundef nonnull align 8 dereferenceable(32) %1) unnamed_addr #6 comdat align 2 {
  %3 = alloca ptr, align 8
  %4 = alloca ptr, align 8
  store ptr %0, ptr %3, align 8, !tbaa !26
  store ptr %1, ptr %4, align 8, !tbaa !17
  %5 = load ptr, ptr %3, align 8
  %6 = getelementptr inbounds nuw %"class.grpc_core::slice_detail::BaseSlice", ptr %5, i32 0, i32 0
  %7 = load ptr, ptr %4, align 8, !tbaa !17
  call void @llvm.memcpy.p0.p0.i64(ptr align 8 %6, ptr align 8 %7, i64 32, i1 false), !tbaa.struct !24
  ret void
}

; Function Attrs: mustprogress nounwind uwtable
define linkonce_odr void @_ZN19grpc_slice_refcount3RefEN9grpc_core13DebugLocationE(ptr noundef nonnull align 8 dereferenceable(16) %0) #6 comdat align 2 {
  %2 = alloca ptr, align 8
  %3 = alloca i64, align 8
  store ptr %0, ptr %2, align 8, !tbaa !25
  %4 = load ptr, ptr %2, align 8
  call void @llvm.lifetime.start.p0(i64 8, ptr %3) #3
  %5 = getelementptr inbounds nuw %struct.grpc_slice_refcount, ptr %4, i32 0, i32 0
  %6 = call noundef i64 @_ZNSt13__atomic_baseImE9fetch_addEmSt12memory_order(ptr noundef nonnull align 8 dereferenceable(8) %5, i64 noundef 1, i32 noundef 0) #3
  store i64 %6, ptr %3, align 8, !tbaa !16
  call void @llvm.lifetime.end.p0(i64 8, ptr %3) #3
  ret void
}

; Function Attrs: mustprogress uwtable
define linkonce_odr void @_ZN9grpc_core12slice_detail9BaseSlice10TakeCSliceEv(ptr dead_on_unwind noalias writable sret(%struct.grpc_slice) align 8 %0, ptr noundef nonnull align 8 dereferenceable(32) %1) #4 comdat align 2 {
  %3 = alloca ptr, align 8
  %4 = alloca %struct.grpc_slice, align 8
  store ptr %1, ptr %3, align 8, !tbaa !26
  %5 = load ptr, ptr %3, align 8
  %6 = getelementptr inbounds nuw %"class.grpc_core::slice_detail::BaseSlice", ptr %5, i32 0, i32 0
  call void @llvm.memcpy.p0.p0.i64(ptr align 8 %0, ptr align 8 %6, i64 32, i1 false), !tbaa.struct !24
  call void @llvm.lifetime.start.p0(i64 32, ptr %4) #3
  call void @_ZN9grpc_core12slice_detailL10EmptySliceEv(ptr dead_on_unwind writable sret(%struct.grpc_slice) align 8 %4)
  %7 = getelementptr inbounds nuw %"class.grpc_core::slice_detail::BaseSlice", ptr %5, i32 0, i32 0
  call void @llvm.memcpy.p0.p0.i64(ptr align 8 %7, ptr align 8 %4, i64 32, i1 false), !tbaa.struct !24
  call void @llvm.lifetime.end.p0(i64 32, ptr %4) #3
  ret void
}

; Function Attrs: mustprogress uwtable
define linkonce_odr void @_ZN9grpc_core5SliceC2ERK10grpc_slice(ptr noundef nonnull align 8 dereferenceable(32) %0, ptr noundef nonnull align 8 dereferenceable(32) %1) unnamed_addr #4 comdat align 2 {
  %3 = alloca ptr, align 8
  %4 = alloca ptr, align 8
  store ptr %0, ptr %3, align 8, !tbaa !8
  store ptr %1, ptr %4, align 8, !tbaa !17
  %5 = load ptr, ptr %3, align 8
  %6 = load ptr, ptr %4, align 8, !tbaa !17
  call void @_ZN9grpc_core12slice_detail9BaseSliceC2ERK10grpc_slice(ptr noundef nonnull align 8 dereferenceable(32) %5, ptr noundef nonnull align 8 dereferenceable(32) %6)
  ret void
}

; Function Attrs: inlinehint mustprogress uwtable
define linkonce_odr noundef nonnull align 8 dereferenceable(32) ptr @_ZN9grpc_core9CSliceRefERK10grpc_sliceNS_13DebugLocationE(ptr noundef nonnull align 8 dereferenceable(32) %0) #7 comdat {
  %2 = alloca ptr, align 8
  store ptr %0, ptr %2, align 8, !tbaa !17
  %3 = load ptr, ptr %2, align 8, !tbaa !17
  %4 = getelementptr inbounds nuw %struct.grpc_slice, ptr %3, i32 0, i32 0
  %5 = load ptr, ptr %4, align 8, !tbaa !19
  %6 = ptrtoint ptr %5 to i64
  %7 = icmp ugt i64 %6, 1
  br i1 %7, label %8, label %12

8:                                                ; preds = %1
  %9 = load ptr, ptr %2, align 8, !tbaa !17
  %10 = getelementptr inbounds nuw %struct.grpc_slice, ptr %9, i32 0, i32 0
  %11 = load ptr, ptr %10, align 8, !tbaa !19
  call void @_ZN19grpc_slice_refcount3RefEN9grpc_core13DebugLocationE(ptr noundef nonnull align 8 dereferenceable(16) %11)
  br label %12

12:                                               ; preds = %8, %1
  %13 = load ptr, ptr %2, align 8, !tbaa !17
  ret ptr %13
}

; Function Attrs: mustprogress nounwind uwtable
define linkonce_odr void @_ZN9grpc_core13DebugLocationC2Ev(ptr noundef nonnull align 1 dereferenceable(1) %0) unnamed_addr #6 comdat align 2 {
  %2 = alloca ptr, align 8
  store ptr %0, ptr %2, align 8, !tbaa !37
  ret void
}

; Function Attrs: mustprogress uwtable
define void @_ZN9grpc_core11SliceBuffer6AppendENS_5SliceE(ptr noundef nonnull align 8 dereferenceable(232) %0, ptr noundef %1) #4 align 2 {
  %3 = alloca ptr, align 8
  %4 = alloca ptr, align 8
  %5 = alloca %struct.grpc_slice, align 8
  store ptr %0, ptr %3, align 8, !tbaa !3
  store ptr %1, ptr %4, align 8, !tbaa !8
  %6 = load ptr, ptr %3, align 8
  %7 = getelementptr inbounds nuw %"class.grpc_core::SliceBuffer", ptr %6, i32 0, i32 0
  call void @_ZN9grpc_core12slice_detail9BaseSlice10TakeCSliceEv(ptr dead_on_unwind writable sret(%struct.grpc_slice) align 8 %5, ptr noundef nonnull align 8 dereferenceable(32) %1)
  call void @grpc_slice_buffer_add(ptr noundef %7, ptr noundef byval(%struct.grpc_slice) align 8 %5)
  ret void
}

; Function Attrs: mustprogress uwtable
define void @_ZNK9grpc_core11SliceBuffer8RefSliceEm(ptr dead_on_unwind noalias writable sret(%"class.grpc_core::Slice") align 8 %0, ptr noundef nonnull align 8 dereferenceable(232) %1, i64 noundef %2) #4 align 2 {
  %4 = alloca ptr, align 8
  %5 = alloca ptr, align 8
  %6 = alloca i64, align 8
  %7 = alloca %"class.grpc_core::DebugLocation", align 1
  store ptr %0, ptr %4, align 8
  store ptr %1, ptr %5, align 8, !tbaa !3
  store i64 %2, ptr %6, align 8, !tbaa !16
  %8 = load ptr, ptr %5, align 8
  %9 = getelementptr inbounds nuw %"class.grpc_core::SliceBuffer", ptr %8, i32 0, i32 0
  %10 = getelementptr inbounds nuw %struct.grpc_slice_buffer, ptr %9, i32 0, i32 1
  %11 = load ptr, ptr %10, align 8, !tbaa !32
  %12 = load i64, ptr %6, align 8, !tbaa !16
  %13 = getelementptr inbounds nuw %struct.grpc_slice, ptr %11, i64 %12
  call void @_ZN9grpc_core13DebugLocationC2Ev(ptr noundef nonnull align 1 dereferenceable(1) %7)
  %14 = call noundef nonnull align 8 dereferenceable(32) ptr @_ZN9grpc_core9CSliceRefERK10grpc_sliceNS_13DebugLocationE(ptr noundef nonnull align 8 dereferenceable(32) %13)
  call void @_ZN9grpc_core5SliceC2ERK10grpc_slice(ptr noundef nonnull align 8 dereferenceable(32) %0, ptr noundef nonnull align 8 dereferenceable(32) %14)
  ret void
}

; Function Attrs: mustprogress nounwind uwtable
define linkonce_odr noundef i64 @_ZNK9grpc_core11SliceBuffer5CountEv(ptr noundef nonnull align 8 dereferenceable(232) %0) #6 comdat align 2 {
  %2 = alloca ptr, align 8
  store ptr %0, ptr %2, align 8, !tbaa !3
  %3 = load ptr, ptr %2, align 8
  %4 = getelementptr inbounds nuw %"class.grpc_core::SliceBuffer", ptr %3, i32 0, i32 0
  %5 = getelementptr inbounds nuw %struct.grpc_slice_buffer, ptr %4, i32 0, i32 2
  %6 = load i64, ptr %5, align 8, !tbaa !30
  ret i64 %6
}

; Function Attrs: mustprogress uwtable
define void @_ZN9grpc_core11SliceBuffer6AppendERKS0_(ptr noundef nonnull align 8 dereferenceable(232) %0, ptr noundef nonnull align 8 dereferenceable(232) %1) #4 align 2 personality ptr @__gxx_personality_v0 {
  %3 = alloca ptr, align 8
  %4 = alloca ptr, align 8
  %5 = alloca i64, align 8
  %6 = alloca %"class.grpc_core::Slice", align 8
  %7 = alloca ptr, align 8
  %8 = alloca i32, align 4
  store ptr %0, ptr %3, align 8, !tbaa !3
  store ptr %1, ptr %4, align 8, !tbaa !3
  %9 = load ptr, ptr %3, align 8
  call void @llvm.lifetime.start.p0(i64 8, ptr %5) #3
  store i64 0, ptr %5, align 8, !tbaa !16
  br label %10

10:                                               ; preds = %20, %2
  %11 = load i64, ptr %5, align 8, !tbaa !16
  %12 = load ptr, ptr %4, align 8, !tbaa !3
  %13 = call noundef i64 @_ZNK9grpc_core11SliceBuffer5CountEv(ptr noundef nonnull align 8 dereferenceable(232) %12)
  %14 = icmp ult i64 %11, %13
  br i1 %14, label %16, label %15

15:                                               ; preds = %10
  call void @llvm.lifetime.end.p0(i64 8, ptr %5) #3
  br label %27

16:                                               ; preds = %10
  %17 = load ptr, ptr %4, align 8, !tbaa !3
  %18 = load i64, ptr %5, align 8, !tbaa !16
  call void @_ZNK9grpc_core11SliceBuffer8RefSliceEm(ptr dead_on_unwind writable sret(%"class.grpc_core::Slice") align 8 %6, ptr noundef nonnull align 8 dereferenceable(232) %17, i64 noundef %18)
  invoke void @_ZN9grpc_core11SliceBuffer6AppendENS_5SliceE(ptr noundef nonnull align 8 dereferenceable(232) %9, ptr noundef %6)
          to label %19 unwind label %23

19:                                               ; preds = %16
  call void @_ZN9grpc_core5SliceD2Ev(ptr noundef nonnull align 8 dereferenceable(32) %6) #3
  br label %20

20:                                               ; preds = %19
  %21 = load i64, ptr %5, align 8, !tbaa !16
  %22 = add i64 %21, 1
  store i64 %22, ptr %5, align 8, !tbaa !16
  br label %10, !llvm.loop !28

23:                                               ; preds = %16
  %24 = landingpad { ptr, i32 }
          cleanup
  %25 = extractvalue { ptr, i32 } %24, 0
  store ptr %25, ptr %7, align 8
  %26 = extractvalue { ptr, i32 } %24, 1
  store i32 %26, ptr %8, align 4
  call void @_ZN9grpc_core5SliceD2Ev(ptr noundef nonnull align 8 dereferenceable(32) %6) #3
  call void @llvm.lifetime.end.p0(i64 8, ptr %5) #3
  br label %28

27:                                               ; preds = %15
  ret void

28:                                               ; preds = %23
  %29 = load ptr, ptr %7, align 8
  %30 = load i32, ptr %8, align 4
  %31 = insertvalue { ptr, i32 } poison, ptr %29, 0
  %32 = insertvalue { ptr, i32 } %31, i32 %30, 1
  resume { ptr, i32 } %32
}