; Function Attrs: mustprogress uwtable
define void @_ZN9grpc_core11SliceBuffer6AppendERKS0_(ptr noundef nonnull align 8 dereferenceable(232) %0, ptr noundef nonnull readonly align 8 captures(none) dereferenceable(232) %1) local_unnamed_addr #3 align 2 personality ptr @__gxx_personality_v0 {
  %3 = alloca %"class.grpc_core::Slice", align 8
  %4 = getelementptr inbounds nuw i8, ptr %1, i64 16
  %5 = load i64, ptr %4, align 8, !tbaa !29
  %.not = icmp eq i64 %5, 0
  br i1 %.not, label %._crit_edge, label %.lr.ph

.lr.ph:                                           ; preds = %2
  %6 = getelementptr inbounds nuw i8, ptr %1, i64 8
  br label %7

._crit_edge:                                      ; preds = %_ZN9grpc_core5SliceD2Ev.exit, %2
  ret void

7:                                                ; preds = %.lr.ph, %_ZN9grpc_core5SliceD2Ev.exit
  %.07 = phi i64 [ 0, %.lr.ph ], [ %14, %_ZN9grpc_core5SliceD2Ev.exit ]
  %8 = load ptr, ptr %6, align 8, !tbaa !31, !noalias !32
  %9 = getelementptr inbounds nuw %struct.grpc_slice, ptr %8, i64 %.07
  %10 = load ptr, ptr %9, align 8, !tbaa !18, !noalias !32
  %11 = icmp ugt ptr %10, inttoptr (i64 1 to ptr)
  br i1 %11, label %12, label %_ZNK9grpc_core11SliceBuffer8RefSliceEm.exit

12:                                               ; preds = %7
  %13 = atomicrmw add ptr %10, i64 1 monotonic, align 8, !noalias !32
  br label %_ZNK9grpc_core11SliceBuffer8RefSliceEm.exit

_ZNK9grpc_core11SliceBuffer8RefSliceEm.exit:      ; preds = %7, %12
  call void @llvm.memset.p0.i64(ptr noundef nonnull align 8 dereferenceable(32) %3, i8 0, i64 32, i1 false), !noalias !35
  invoke void @grpc_slice_buffer_add(ptr noundef nonnull align 8 dereferenceable(232) %0, ptr noundef nonnull byval(%struct.grpc_slice) align 8 %9)
          to label %_ZN9grpc_core5SliceD2Ev.exit unwind label %16

_ZN9grpc_core5SliceD2Ev.exit:                     ; preds = %_ZNK9grpc_core11SliceBuffer8RefSliceEm.exit
  %.pre = load i64, ptr %4, align 8, !tbaa !29
  %14 = add nuw i64 %.07, 1
  %15 = icmp ult i64 %14, %.pre
  br i1 %15, label %7, label %._crit_edge, !llvm.loop !38

16:                                               ; preds = %_ZNK9grpc_core11SliceBuffer8RefSliceEm.exit
  %17 = landingpad { ptr, i32 }
          cleanup
  call void @_ZN9grpc_core5SliceD2Ev(ptr noundef nonnull align 8 dereferenceable(32) %3) #22
  resume { ptr, i32 } %17
}